; ModuleID = 'source-C-CXX/56/2785.c'
source_filename = "source-C-CXX/56/2785.c"
target datalayout = "e-m:e-p270:32:32-p271:32:32-p272:64:64-i64:64-f80:128-n8:16:32:64-S128"
target triple = "x86_64-pc-linux-gnu"

%struct._IO_FILE = type { i32, i8*, i8*, i8*, i8*, i8*, i8*, i8*, i8*, i8*, i8*, i8*, %struct._IO_marker*, %struct._IO_FILE*, i32, i32, i64, i16, i8, [1 x i8], i8*, i64, %struct._IO_codecvt*, %struct._IO_wide_data*, %struct._IO_FILE*, i8*, i64, i32, [20 x i8] }
%struct._IO_marker = type opaque
%struct._IO_codecvt = type opaque
%struct._IO_wide_data = type opaque

@.str = private unnamed_addr constant [3 x i8] c"%d\00", align 1
@.str.1 = private unnamed_addr constant [3 x i8] c"%s\00", align 1
@stdin = external local_unnamed_addr global %struct._IO_FILE*, align 8

; Function Attrs: nofree nounwind sspstrong uwtable
define dso_local i32 @main() local_unnamed_addr #0 {
  %1 = alloca i32, align 4
  %2 = alloca [20 x i8], align 16
  %3 = bitcast i32* %1 to i8*
  call void @llvm.lifetime.start.p0i8(i64 4, i8* nonnull %3) #5
  %4 = getelementptr inbounds [20 x i8], [20 x i8]* %2, i64 0, i64 0
  call void @llvm.lifetime.start.p0i8(i64 20, i8* nonnull %4) #5
  %5 = call i32 (i8*, ...) @__isoc99_scanf(i8* getelementptr inbounds ([3 x i8], [3 x i8]* @.str, i64 0, i64 0), i32* nonnull %1)
  %6 = load %struct._IO_FILE*, %struct._IO_FILE** @stdin, align 8, !tbaa !5
  %7 = call i32 @getc(%struct._IO_FILE* %6) #5
  %8 = load i32, i32* %1, align 4, !tbaa !9
  %9 = icmp sgt i32 %8, 0
  br i1 %9, label %10, label %80

10:                                               ; preds = %0, %76
  %11 = phi i32 [ %77, %76 ], [ 0, %0 ]
  %12 = call i32 (i8*, ...) @__isoc99_scanf(i8* getelementptr inbounds ([3 x i8], [3 x i8]* @.str.1, i64 0, i64 0), i8* nonnull %4)
  %13 = call i64 @strlen(i8* noundef nonnull %4) #6
  %14 = trunc i64 %13 to i32
  %15 = shl i64 %13, 32
  %16 = add i64 %15, -4294967296
  %17 = ashr exact i64 %16, 32
  %18 = getelementptr inbounds [20 x i8], [20 x i8]* %2, i64 0, i64 %17
  %19 = load i8, i8* %18, align 1, !tbaa !11
  switch i8 %19, label %47 [
    i8 114, label %20
    i8 121, label %26
  ]

20:                                               ; preds = %10
  %21 = add i64 %15, -8589934592
  %22 = ashr exact i64 %21, 32
  %23 = getelementptr inbounds [20 x i8], [20 x i8]* %2, i64 0, i64 %22
  %24 = load i8, i8* %23, align 1, !tbaa !11
  %25 = icmp eq i8 %24, 101
  br i1 %25, label %32, label %47

26:                                               ; preds = %10
  %27 = add i64 %15, -8589934592
  %28 = ashr exact i64 %27, 32
  %29 = getelementptr inbounds [20 x i8], [20 x i8]* %2, i64 0, i64 %28
  %30 = load i8, i8* %29, align 1, !tbaa !11
  %31 = icmp eq i8 %30, 108
  br i1 %31, label %32, label %47

32:                                               ; preds = %26, %20
  %33 = icmp sgt i32 %14, 2
  br i1 %33, label %34, label %45

34:                                               ; preds = %32
  %35 = add i64 %13, 4294967294
  %36 = and i64 %35, 4294967295
  br label %37

37:                                               ; preds = %34, %37
  %38 = phi i64 [ 0, %34 ], [ %43, %37 ]
  %39 = getelementptr inbounds [20 x i8], [20 x i8]* %2, i64 0, i64 %38
  %40 = load i8, i8* %39, align 1, !tbaa !11
  %41 = sext i8 %40 to i32
  %42 = call i32 @putchar(i32 %41)
  %43 = add nuw nsw i64 %38, 1
  %44 = icmp eq i64 %43, %36
  br i1 %44, label %45, label %37, !llvm.loop !12

45:                                               ; preds = %37, %32
  %46 = call i32 @putchar(i32 10)
  br label %47

47:                                               ; preds = %10, %20, %45, %26
  %48 = add i32 %14, -3
  %49 = sext i32 %48 to i64
  %50 = getelementptr inbounds [20 x i8], [20 x i8]* %2, i64 0, i64 %49
  %51 = load i8, i8* %50, align 1, !tbaa !11
  %52 = icmp eq i8 %51, 105
  br i1 %52, label %53, label %76

53:                                               ; preds = %47
  %54 = add i64 %15, -8589934592
  %55 = ashr exact i64 %54, 32
  %56 = getelementptr inbounds [20 x i8], [20 x i8]* %2, i64 0, i64 %55
  %57 = load i8, i8* %56, align 1, !tbaa !11
  %58 = icmp eq i8 %57, 110
  br i1 %58, label %59, label %76

59:                                               ; preds = %53
  %60 = load i8, i8* %18, align 1, !tbaa !11
  %61 = icmp eq i8 %60, 103
  br i1 %61, label %62, label %76

62:                                               ; preds = %59
  %63 = icmp sgt i32 %14, 3
  br i1 %63, label %64, label %74

64:                                               ; preds = %62
  %65 = zext i32 %48 to i64
  br label %66

66:                                               ; preds = %64, %66
  %67 = phi i64 [ 0, %64 ], [ %72, %66 ]
  %68 = getelementptr inbounds [20 x i8], [20 x i8]* %2, i64 0, i64 %67
  %69 = load i8, i8* %68, align 1, !tbaa !11
  %70 = sext i8 %69 to i32
  %71 = call i32 @putchar(i32 %70)
  %72 = add nuw nsw i64 %67, 1
  %73 = icmp eq i64 %72, %65
  br i1 %73, label %74, label %66, !llvm.loop !14

74:                                               ; preds = %66, %62
  %75 = call i32 @putchar(i32 10)
  br label %76

76:                                               ; preds = %47, %53, %59, %74
  %77 = add nuw nsw i32 %11, 1
  %78 = load i32, i32* %1, align 4, !tbaa !9
  %79 = icmp slt i32 %77, %78
  br i1 %79, label %10, label %80, !llvm.loop !15

80:                                               ; preds = %76, %0
  call void @llvm.lifetime.end.p0i8(i64 20, i8* nonnull %4) #5
  call void @llvm.lifetime.end.p0i8(i64 4, i8* nonnull %3) #5
  ret i32 0
}

; Function Attrs: argmemonly mustprogress nofree nosync nounwind willreturn
declare void @llvm.lifetime.start.p0i8(i64 immarg, i8* nocapture) #1

; Function Attrs: nofree nounwind
declare noundef i32 @__isoc99_scanf(i8* nocapture noundef readonly, ...) local_unnamed_addr #2

; Function Attrs: argmemonly mustprogress nofree nounwind readonly willreturn
declare i64 @strlen(i8* nocapture) local_unnamed_addr #3

; Function Attrs: argmemonly mustprogress nofree nosync nounwind willreturn
declare void @llvm.lifetime.end.p0i8(i64 immarg, i8* nocapture) #1

; Function Attrs: nofree nounwind
declare noundef i32 @getc(%struct._IO_FILE* nocapture noundef) local_unnamed_addr #2

; Function Attrs: nofree nounwind
declare noundef i32 @putchar(i32 noundef) local_unnamed_addr #4


!llvm.module.flags = !{!0, !1, !2, !3}
!llvm.ident = !{!4}

!0 = !{i32 1, !"wchar_size", i32 4}
!1 = !{i32 7, !"PIC Level", i32 2}
!2 = !{i32 7, !"PIE Level", i32 2}
!3 = !{i32 7, !"uwtable", i32 1}
!4 = !{!"clang version 13.0.0"}
!5 = !{!6, !6, i64 0}
!6 = !{!"any pointer", !7, i64 0}
!7 = !{!"omnipotent char", !8, i64 0}
!8 = !{!"Simple C/C++ TBAA"}
!9 = !{!10, !10, i64 0}
!10 = !{!"int", !7, i64 0}
!11 = !{!7, !7, i64 0}
!12 = distinct !{!12, !13}
!13 = !{!"llvm.loop.mustprogress"}
!14 = distinct !{!14, !13}
!15 = distinct !{!15, !13}
